	.file	"main.c"
	.text
.Ltext0:
	.file 0 "/home/heige/source/src" "../kneral/main.c"
	.globl	message
	.data
	.align 4
	.type	message, @object
	.size	message, 23
message:
	.string	"hello,world. i'm an os"
	.text
	.globl	init_kneral
	.type	init_kneral, @function
init_kneral:
.LFB0:
	.file 1 "../kneral/main.c"
	.loc 1 13 19
	.cfi_startproc
	pushl	%ebp
	.cfi_def_cfa_offset 8
	.cfi_offset 5, -8
	movl	%esp, %ebp
	.cfi_def_cfa_register 5
	pushl	%ebx
	subl	$20, %esp
	.cfi_offset 3, -12
	call	__x86.get_pc_thunk.bx
	addl	$_GLOBAL_OFFSET_TABLE_, %ebx
	.loc 1 14 14
	subl	$12, %esp
	pushl	$773
	call	inb@PLT
	addl	$16, %esp
	movb	%al, -17(%ebp)
	.loc 1 15 5
	subl	$8, %esp
	pushl	$14
	pushl	$981
	call	outb@PLT
	addl	$16, %esp
	.loc 1 16 5
	subl	$8, %esp
	pushl	$20
	pushl	$982
	call	outb@PLT
	addl	$16, %esp
	.loc 1 17 5
	subl	$8, %esp
	pushl	$15
	pushl	$981
	call	outb@PLT
	addl	$16, %esp
	.loc 1 18 5
	subl	$8, %esp
	pushl	$20
	pushl	$982
	call	outb@PLT
	addl	$16, %esp
	.loc 1 20 11
	movl	$753664, -12(%ebp)
.LBB2:
	.loc 1 21 14
	movl	$0, -16(%ebp)
	.loc 1 21 5
	jmp	.L2
.L3:
	.loc 1 22 17 discriminator 3
	movl	-16(%ebp), %eax
	addl	%eax, %eax
	movl	%eax, %edx
	.loc 1 22 15 discriminator 3
	movl	-12(%ebp), %eax
	addl	%eax, %edx
	.loc 1 22 30 discriminator 3
	leal	message@GOTOFF(%ebx), %ecx
	movl	-16(%ebp), %eax
	addl	%ecx, %eax
	movzbl	(%eax), %eax
	.loc 1 22 21 discriminator 3
	movb	%al, (%edx)
	.loc 1 21 37 discriminator 3
	addl	$1, -16(%ebp)
.L2:
	.loc 1 21 19 discriminator 1
	movl	-16(%ebp), %eax
	cmpl	$22, %eax
	jbe	.L3
.LBE2:
	.loc 1 25 1
	nop
	nop
	movl	-4(%ebp), %ebx
	leave
	.cfi_restore 5
	.cfi_restore 3
	.cfi_def_cfa 4, 4
	ret
	.cfi_endproc
.LFE0:
	.size	init_kneral, .-init_kneral
	.section	.text.__x86.get_pc_thunk.bx,"axG",@progbits,__x86.get_pc_thunk.bx,comdat
	.globl	__x86.get_pc_thunk.bx
	.hidden	__x86.get_pc_thunk.bx
	.type	__x86.get_pc_thunk.bx, @function
__x86.get_pc_thunk.bx:
.LFB1:
	.cfi_startproc
	movl	(%esp), %ebx
	ret
	.cfi_endproc
.LFE1:
	.text
.Letext0:
	.file 2 "/home/heige/source/include/main.h"
	.file 3 "/home/heige/source/include/io.h"
	.section	.note.GNU-stack,"",@progbits
